target datalayout = "e-m:e-p270:32:32-p271:32:32-p272:64:64-i64:64-i128:128-f80:128-n8:16:32:64-S128"
target triple = "x86_64-unknown-linux-gnu"

%"class.icu_75::UObject" = type { ptr }
%"class.icu_75::TimeZoneTransition" = type { %"class.icu_75::UObject", double, ptr, ptr }

@_ZTIN6icu_758TimeZoneE = external constant ptr
@_ZTIN6icu_7513BasicTimeZoneE = external constant ptr

; Function Attrs: mustprogress nounwind uwtable
define internal noundef signext i8 @_ZL9U_SUCCESS10UErrorCode(i32 noundef %code) #0 {
entry:
  %code.addr = alloca i32, align 4
  store i32 %code, ptr %code.addr, align 4
  %0 = load i32, ptr %code.addr, align 4
  %cmp = icmp sle i32 %0, 0
  %conv = zext i1 %cmp to i8
  ret i8 %conv
}

; Function Attrs: mustprogress uwtable
define linkonce_odr noundef double @_ZNK6icu_758Calendar7getTimeER10UErrorCode(ptr noundef nonnull align 8 dereferenceable(618) %this, ptr noundef nonnull align 4 dereferenceable(4) %status) #1 comdat align 2 {
entry:
  %this.addr = alloca ptr, align 8
  %status.addr = alloca ptr, align 8
  store ptr %this, ptr %this.addr, align 8
  store ptr %status, ptr %status.addr, align 8
  %this1 = load ptr, ptr %this.addr, align 8
  %0 = load ptr, ptr %status.addr, align 8
  %call = call noundef double @_ZNK6icu_758Calendar15getTimeInMillisER10UErrorCode(ptr noundef nonnull align 8 dereferenceable(618) %this1, ptr noundef nonnull align 4 dereferenceable(4) %0)
  ret double %call
}

; Function Attrs: mustprogress nounwind uwtable
define internal noundef signext i8 @_ZL9U_FAILURE10UErrorCode(i32 noundef %code) #0 {
entry:
  %code.addr = alloca i32, align 4
  store i32 %code, ptr %code.addr, align 4
  %0 = load i32, ptr %code.addr, align 4
  %cmp = icmp sgt i32 %0, 0
  %conv = zext i1 %cmp to i8
  ret i8 %conv
}

; Function Attrs: mustprogress uwtable
define signext i8 @ucal_getTimeZoneTransitionDate_75(ptr noundef %cal, i32 noundef %type, ptr noundef %transition, ptr noundef %status) #1 personality ptr @__gxx_personality_v0 {
entry:
  %retval = alloca i8, align 1
  %cal.addr = alloca ptr, align 8
  %type.addr = alloca i32, align 4
  %transition.addr = alloca ptr, align 8
  %status.addr = alloca ptr, align 8
  %base = alloca double, align 8
  %tz = alloca ptr, align 8
  %btz = alloca ptr, align 8
  %tzt = alloca %"class.icu_75::TimeZoneTransition", align 8
  %inclusive = alloca i8, align 1
  %result = alloca i8, align 1
  %exn.slot = alloca ptr, align 8
  %ehselector.slot = alloca i32, align 4
  %cleanup.dest.slot = alloca i32, align 4
  store ptr %cal, ptr %cal.addr, align 8
  store i32 %type, ptr %type.addr, align 4
  store ptr %transition, ptr %transition.addr, align 8
  store ptr %status, ptr %status.addr, align 8
  %0 = load ptr, ptr %status.addr, align 8
  %1 = load i32, ptr %0, align 4
  %call = call noundef signext i8 @_ZL9U_FAILURE10UErrorCode(i32 noundef %1)
  %tobool = icmp ne i8 %call, 0
  br i1 %tobool, label %if.then, label %if.end

if.then:                                          ; preds = %entry
  store i8 0, ptr %retval, align 1
  br label %return

if.end:                                           ; preds = %entry
  %2 = load ptr, ptr %cal.addr, align 8
  %3 = load ptr, ptr %status.addr, align 8
  %call1 = call noundef double @_ZNK6icu_758Calendar7getTimeER10UErrorCode(ptr noundef nonnull align 8 dereferenceable(618) %2, ptr noundef nonnull align 4 dereferenceable(4) %3)
  store double %call1, ptr %base, align 8
  %4 = load ptr, ptr %cal.addr, align 8
  %call2 = call noundef nonnull align 8 dereferenceable(72) ptr @_ZNK6icu_758Calendar11getTimeZoneEv(ptr noundef nonnull align 8 dereferenceable(618) %4)
  store ptr %call2, ptr %tz, align 8
  %5 = load ptr, ptr %tz, align 8
  %6 = icmp eq ptr %5, null
  br i1 %6, label %dynamic_cast.null, label %dynamic_cast.notnull

dynamic_cast.notnull:                             ; preds = %if.end
  %7 = call ptr @__dynamic_cast(ptr %5, ptr @_ZTIN6icu_758TimeZoneE, ptr @_ZTIN6icu_7513BasicTimeZoneE, i64 0) #9
  br label %dynamic_cast.end

dynamic_cast.null:                                ; preds = %if.end
  br label %dynamic_cast.end

dynamic_cast.end:                                 ; preds = %dynamic_cast.null, %dynamic_cast.notnull
  %8 = phi ptr [ %7, %dynamic_cast.notnull ], [ null, %dynamic_cast.null ]
  store ptr %8, ptr %btz, align 8
  %9 = load ptr, ptr %btz, align 8
  %cmp = icmp ne ptr %9, null
  br i1 %cmp, label %land.lhs.true, label %if.end20

land.lhs.true:                                    ; preds = %dynamic_cast.end
  %10 = load ptr, ptr %status.addr, align 8
  %11 = load i32, ptr %10, align 4
  %call3 = call noundef signext i8 @_ZL9U_SUCCESS10UErrorCode(i32 noundef %11)
  %tobool4 = icmp ne i8 %call3, 0
  br i1 %tobool4, label %if.then5, label %if.end20

if.then5:                                         ; preds = %land.lhs.true
  call void @_ZN6icu_7518TimeZoneTransitionC1Ev(ptr noundef nonnull align 8 dereferenceable(32) %tzt)
  %12 = load i32, ptr %type.addr, align 4
  %cmp6 = icmp eq i32 %12, 1
  br i1 %cmp6, label %lor.end, label %lor.rhs

lor.rhs:                                          ; preds = %if.then5
  %13 = load i32, ptr %type.addr, align 4
  %cmp7 = icmp eq i32 %13, 3
  br label %lor.end

lor.end:                                          ; preds = %lor.rhs, %if.then5
  %14 = phi i1 [ true, %if.then5 ], [ %cmp7, %lor.rhs ]
  %conv = zext i1 %14 to i8
  store i8 %conv, ptr %inclusive, align 1
  %15 = load i32, ptr %type.addr, align 4
  %cmp8 = icmp eq i32 %15, 0
  br i1 %cmp8, label %cond.true, label %lor.lhs.false

lor.lhs.false:                                    ; preds = %lor.end
  %16 = load i32, ptr %type.addr, align 4
  %cmp9 = icmp eq i32 %16, 1
  br i1 %cmp9, label %cond.true, label %cond.false

cond.true:                                        ; preds = %lor.lhs.false, %lor.end
  %17 = load ptr, ptr %btz, align 8
  %18 = load double, ptr %base, align 8
  %19 = load i8, ptr %inclusive, align 1
  %vtable = load ptr, ptr %17, align 8
  %vfn = getelementptr inbounds ptr, ptr %vtable, i64 14
  %20 = load ptr, ptr %vfn, align 8
  %call10 = invoke noundef signext i8 %20(ptr noundef nonnull align 8 dereferenceable(72) %17, double noundef %18, i8 noundef signext %19, ptr noundef nonnull align 8 dereferenceable(32) %tzt)
          to label %invoke.cont unwind label %lpad

invoke.cont:                                      ; preds = %cond.true
  br label %cond.end

cond.false:                                       ; preds = %lor.lhs.false
  %21 = load ptr, ptr %btz, align 8
  %22 = load double, ptr %base, align 8
  %23 = load i8, ptr %inclusive, align 1
  %vtable11 = load ptr, ptr %21, align 8
  %vfn12 = getelementptr inbounds ptr, ptr %vtable11, i64 15
  %24 = load ptr, ptr %vfn12, align 8
  %call14 = invoke noundef signext i8 %24(ptr noundef nonnull align 8 dereferenceable(72) %21, double noundef %22, i8 noundef signext %23, ptr noundef nonnull align 8 dereferenceable(32) %tzt)
          to label %invoke.cont13 unwind label %lpad

invoke.cont13:                                    ; preds = %cond.false
  br label %cond.end

cond.end:                                         ; preds = %invoke.cont13, %invoke.cont
  %cond = phi i8 [ %call10, %invoke.cont ], [ %call14, %invoke.cont13 ]
  store i8 %cond, ptr %result, align 1
  %25 = load i8, ptr %result, align 1
  %tobool15 = icmp ne i8 %25, 0
  br i1 %tobool15, label %if.then16, label %if.end19

if.then16:                                        ; preds = %cond.end
  %call18 = invoke noundef double @_ZNK6icu_7518TimeZoneTransition7getTimeEv(ptr noundef nonnull align 8 dereferenceable(32) %tzt)
          to label %invoke.cont17 unwind label %lpad

invoke.cont17:                                    ; preds = %if.then16
  %26 = load ptr, ptr %transition.addr, align 8
  store double %call18, ptr %26, align 8
  store i8 1, ptr %retval, align 1
  store i32 1, ptr %cleanup.dest.slot, align 4
  br label %cleanup

lpad:                                             ; preds = %if.then16, %cond.false, %cond.true
  %27 = landingpad { ptr, i32 }
          cleanup
  %28 = extractvalue { ptr, i32 } %27, 0
  store ptr %28, ptr %exn.slot, align 8
  %29 = extractvalue { ptr, i32 } %27, 1
  store i32 %29, ptr %ehselector.slot, align 4
  call void @_ZN6icu_7518TimeZoneTransitionD1Ev(ptr noundef nonnull align 8 dereferenceable(32) %tzt) #9
  br label %eh.resume

if.end19:                                         ; preds = %cond.end
  store i32 0, ptr %cleanup.dest.slot, align 4
  br label %cleanup

cleanup:                                          ; preds = %if.end19, %invoke.cont17
  call void @_ZN6icu_7518TimeZoneTransitionD1Ev(ptr noundef nonnull align 8 dereferenceable(32) %tzt) #9
  %cleanup.dest = load i32, ptr %cleanup.dest.slot, align 4
  switch i32 %cleanup.dest, label %unreachable [
    i32 0, label %cleanup.cont
    i32 1, label %return
  ]

cleanup.cont:                                     ; preds = %cleanup
  br label %if.end20

if.end20:                                         ; preds = %cleanup.cont, %land.lhs.true, %dynamic_cast.end
  store i8 0, ptr %retval, align 1
  br label %return

return:                                           ; preds = %if.end20, %cleanup, %if.then
  %30 = load i8, ptr %retval, align 1
  ret i8 %30

eh.resume:                                        ; preds = %lpad
  %exn = load ptr, ptr %exn.slot, align 8
  %sel = load i32, ptr %ehselector.slot, align 4
  %lpad.val = insertvalue { ptr, i32 } poison, ptr %exn, 0
  %lpad.val21 = insertvalue { ptr, i32 } %lpad.val, i32 %sel, 1
  resume { ptr, i32 } %lpad.val21

unreachable:                                      ; preds = %cleanup
  unreachable
}