; Function Attrs: mustprogress uwtable
define noundef signext i8 @ucal_getTimeZoneTransitionDate_75(ptr noundef %cal, i32 noundef %type, ptr nocapture noundef writeonly %transition, ptr noundef %status) local_unnamed_addr #1 personality ptr @__gxx_personality_v0 {
entry:
  %tzt = alloca %"class.icu_75::TimeZoneTransition", align 8
  %0 = load i32, ptr %status, align 4
  %cmp.i = icmp slt i32 %0, 1
  br i1 %cmp.i, label %if.end, label %return

if.end:                                           ; preds = %entry
  %call.i = tail call noundef double @_ZNK6icu_758Calendar15getTimeInMillisER10UErrorCode(ptr noundef nonnull align 8 dereferenceable(618) %cal, ptr noundef nonnull align 4 dereferenceable(4) %status)
  %call2 = tail call noundef nonnull align 8 dereferenceable(72) ptr @_ZNK6icu_758Calendar11getTimeZoneEv(ptr noundef nonnull align 8 dereferenceable(618) %cal)
  %1 = tail call ptr @__dynamic_cast(ptr nonnull %call2, ptr nonnull @_ZTIN6icu_758TimeZoneE, ptr nonnull @_ZTIN6icu_7513BasicTimeZoneE, i64 0) #11
  %cmp.not = icmp eq ptr %1, null
  br i1 %cmp.not, label %return, label %land.lhs.true

land.lhs.true:                                    ; preds = %if.end
  %2 = load i32, ptr %status, align 4
  %cmp.i11 = icmp sgt i32 %2, 0
  br i1 %cmp.i11, label %return, label %if.then5

if.then5:                                         ; preds = %land.lhs.true
  call void @_ZN6icu_7518TimeZoneTransitionC1Ev(ptr noundef nonnull align 8 dereferenceable(32) %tzt)
  %3 = and i32 %type, -3
  %4 = icmp eq i32 %3, 1
  %conv = zext i1 %4 to i8
  %or.cond = icmp ult i32 %type, 2
  %vtable = load ptr, ptr %1, align 8
  %. = select i1 %or.cond, i64 112, i64 120
  %vfn = getelementptr inbounds i8, ptr %vtable, i64 %.
  %5 = load ptr, ptr %vfn, align 8
  %6 = invoke noundef signext i8 %5(ptr noundef nonnull align 8 dereferenceable(72) %1, double noundef %call.i, i8 noundef signext %conv, ptr noundef nonnull align 8 dereferenceable(32) %tzt)
          to label %cond.end unwind label %lpad

cond.end:                                         ; preds = %if.then5
  %tobool15.not.not = icmp eq i8 %6, 0
  br i1 %tobool15.not.not, label %return.sink.split, label %if.then16

if.then16:                                        ; preds = %cond.end
  %call18 = invoke noundef double @_ZNK6icu_7518TimeZoneTransition7getTimeEv(ptr noundef nonnull align 8 dereferenceable(32) %tzt)
          to label %cleanup unwind label %lpad

lpad:                                             ; preds = %if.then5, %if.then16
  %7 = landingpad { ptr, i32 }
          cleanup
  call void @_ZN6icu_7518TimeZoneTransitionD1Ev(ptr noundef nonnull align 8 dereferenceable(32) %tzt) #11
  resume { ptr, i32 } %7

cleanup:                                          ; preds = %if.then16
  store double %call18, ptr %transition, align 8
  br label %return.sink.split

return.sink.split:                                ; preds = %cond.end, %cleanup
  %retval.1.ph = phi i8 [ 1, %cleanup ], [ 0, %cond.end ]
  call void @_ZN6icu_7518TimeZoneTransitionD1Ev(ptr noundef nonnull align 8 dereferenceable(32) %tzt) #11
  br label %return

return:                                           ; preds = %return.sink.split, %if.end, %land.lhs.true, %entry
  %retval.1 = phi i8 [ 0, %entry ], [ 0, %land.lhs.true ], [ 0, %if.end ], [ %retval.1.ph, %return.sink.split ]
  ret i8 %retval.1
}